; Function Attrs: mustprogress uwtable
define noundef i32 @_ZN6icu_756number4impl22MutablePatternModifier12insertSuffixERNS_22FormattedStringBuilderEiR10UErrorCode(ptr noundef nonnull align 8 dereferenceable(392) %this, ptr noundef nonnull align 8 dereferenceable(136) %sb, i32 noundef %position, ptr noundef nonnull align 4 dereferenceable(4) %status) local_unnamed_addr #1 align 2 {
entry:
  %fPatternInfo.i = getelementptr inbounds i8, ptr %this, i64 32
  %0 = load ptr, ptr %fPatternInfo.i, align 8
  %fSignDisplay.i = getelementptr inbounds i8, ptr %this, i64 44
  %1 = load i32, ptr %fSignDisplay.i, align 4
  %fSignum.i = getelementptr inbounds i8, ptr %this, i64 312
  %2 = load i32, ptr %fSignum.i, align 8
  %call.i = tail call noundef i32 @_ZN6icu_756number4impl18PatternStringUtils18resolveSignDisplayE18UNumberSignDisplayNS1_6SignumE(i32 noundef %1, i32 noundef %2)
  %fPlural.i = getelementptr inbounds i8, ptr %this, i64 316
  %3 = load i32, ptr %fPlural.i, align 4
  %fPerMilleReplacesPercent.i = getelementptr inbounds i8, ptr %this, i64 48
  %4 = load <2 x i8>, ptr %fPerMilleReplacesPercent.i, align 8
  %5 = trunc <2 x i8> %4 to <2 x i1>
  %currentAffix.i = getelementptr inbounds i8, ptr %this, i64 328
  %6 = extractelement <2 x i1> %5, i64 0
  %7 = extractelement <2 x i1> %5, i64 1
  tail call void @_ZN6icu_756number4impl18PatternStringUtils26patternInfoToStringBuilderERKNS1_20AffixPatternProviderEbNS1_15PatternSignTypeEbNS_14StandardPlural4FormEbbRNS_13UnicodeStringE(ptr noundef nonnull align 8 dereferenceable(8) %0, i1 noundef zeroext false, i32 noundef %call.i, i1 noundef zeroext %7, i32 noundef %3, i1 noundef zeroext %6, i1 noundef zeroext false, ptr noundef nonnull align 8 dereferenceable(64) %currentAffix.i)
  %add.ptr = getelementptr inbounds i8, ptr %this, i64 16
  %fField = getelementptr inbounds i8, ptr %this, i64 40
  %agg.tmp.sroa.0.0.copyload = load i8, ptr %fField, align 8
  %call = tail call noundef i32 @_ZN6icu_756number4impl10AffixUtils8unescapeERKNS_13UnicodeStringERNS_22FormattedStringBuilderEiRKNS1_14SymbolProviderENS6_5FieldER10UErrorCode(ptr noundef nonnull align 8 dereferenceable(64) %currentAffix.i, ptr noundef nonnull align 8 dereferenceable(136) %sb, i32 noundef %position, ptr noundef nonnull align 8 dereferenceable(8) %add.ptr, i8 %agg.tmp.sroa.0.0.copyload, ptr noundef nonnull align 4 dereferenceable(4) %status)
  ret i32 %call
}